target datalayout = "e-m:e-p270:32:32-p271:32:32-p272:64:64-i64:64-i128:128-f80:128-n8:16:32:64-S128"
target triple = "x86_64-unknown-linux-gnu"

%struct.rsa_meth_st = type { %struct.openssl_method_common_st, ptr, ptr, ptr, ptr, ptr, ptr, ptr, ptr, ptr, ptr, ptr, ptr, ptr, i32, ptr, ptr, ptr }
%struct.openssl_method_common_st = type { i32, i8 }
%struct.rsa_st = type { ptr, ptr, ptr, ptr, ptr, ptr, ptr, ptr, ptr, ptr, %struct.crypto_ex_data_st, i32, i32, %union.crypto_mutex_st, ptr, ptr, ptr, i32, ptr, ptr }
%struct.crypto_ex_data_st = type { ptr }
%union.crypto_mutex_st = type { double, [48 x i8] }

; Function Attrs: nounwind uwtable
define hidden i32 @RSA_supports_digest(ptr noundef %rsa, ptr noundef %md) #0 {
entry:
  %retval = alloca i32, align 4
  %rsa.addr = alloca ptr, align 8
  %md.addr = alloca ptr, align 8
  store ptr %rsa, ptr %rsa.addr, align 8
  store ptr %md, ptr %md.addr, align 8
  %0 = load ptr, ptr %rsa.addr, align 8
  %meth = getelementptr inbounds %struct.rsa_st, ptr %0, i32 0, i32 0
  %1 = load ptr, ptr %meth, align 8
  %tobool = icmp ne ptr %1, null
  br i1 %tobool, label %land.lhs.true, label %if.end

land.lhs.true:                                    ; preds = %entry
  %2 = load ptr, ptr %rsa.addr, align 8
  %meth1 = getelementptr inbounds %struct.rsa_st, ptr %2, i32 0, i32 0
  %3 = load ptr, ptr %meth1, align 8
  %supports_digest = getelementptr inbounds %struct.rsa_meth_st, ptr %3, i32 0, i32 17
  %4 = load ptr, ptr %supports_digest, align 8
  %tobool2 = icmp ne ptr %4, null
  br i1 %tobool2, label %if.then, label %if.end

if.then:                                          ; preds = %land.lhs.true
  %5 = load ptr, ptr %rsa.addr, align 8
  %meth3 = getelementptr inbounds %struct.rsa_st, ptr %5, i32 0, i32 0
  %6 = load ptr, ptr %meth3, align 8
  %supports_digest4 = getelementptr inbounds %struct.rsa_meth_st, ptr %6, i32 0, i32 17
  %7 = load ptr, ptr %supports_digest4, align 8
  %8 = load ptr, ptr %rsa.addr, align 8
  %9 = load ptr, ptr %md.addr, align 8
  %call = call i32 %7(ptr noundef %8, ptr noundef %9)
  store i32 %call, ptr %retval, align 4
  br label %return

if.end:                                           ; preds = %land.lhs.true, %entry
  store i32 1, ptr %retval, align 4
  br label %return

return:                                           ; preds = %if.end, %if.then
  %10 = load i32, ptr %retval, align 4
  ret i32 %10
}