; Function Attrs: nounwind uwtable
define hidden i32 @RSA_supports_digest(ptr noundef %rsa, ptr noundef %md) local_unnamed_addr #0 {
entry:
  %0 = load ptr, ptr %rsa, align 8
  %tobool.not = icmp eq ptr %0, null
  br i1 %tobool.not, label %return, label %land.lhs.true

land.lhs.true:                                    ; preds = %entry
  %supports_digest = getelementptr inbounds nuw i8, ptr %0, i64 136
  %1 = load ptr, ptr %supports_digest, align 8
  %tobool2.not = icmp eq ptr %1, null
  br i1 %tobool2.not, label %return, label %if.then

if.then:                                          ; preds = %land.lhs.true
  %call = tail call i32 %1(ptr noundef nonnull %rsa, ptr noundef %md) #9
  br label %return

return:                                           ; preds = %entry, %land.lhs.true, %if.then
  %retval.0 = phi i32 [ %call, %if.then ], [ 1, %land.lhs.true ], [ 1, %entry ]
  ret i32 %retval.0
}